target datalayout = "e-m:e-p270:32:32-p271:32:32-p272:64:64-i64:64-i128:128-f80:128-n8:16:32:64-S128"
target triple = "x86_64-unknown-linux-gnu"

@_ZN6icu_7515AlphabeticIndex6RecordD1Ev = unnamed_addr alias void (ptr), ptr @_ZN6icu_7515AlphabeticIndex6RecordD2Ev

; Function Attrs: mustprogress nounwind uwtable
define internal void @_ZN6icu_75L23alphaIndex_deleteRecordEPv(ptr noundef %obj) #0 {
entry:
  %obj.addr = alloca ptr, align 8
  store ptr %obj, ptr %obj.addr, align 8
  %0 = load ptr, ptr %obj.addr, align 8
  %isnull = icmp eq ptr %0, null
  br i1 %isnull, label %delete.end, label %delete.notnull

delete.notnull:                                   ; preds = %entry
  call void @_ZN6icu_7515AlphabeticIndex6RecordD1Ev(ptr noundef nonnull align 8 dereferenceable(80) %0) #7
  call void @_ZN6icu_757UMemorydlEPv(ptr noundef %0) #7
  br label %delete.end

delete.end:                                       ; preds = %delete.notnull, %entry
  ret void
}