; Function Attrs: mustprogress nounwind uwtable
define internal void @_ZN6icu_75L23alphaIndex_deleteRecordEPv(ptr noundef %obj) #0 {
entry:
  %isnull = icmp eq ptr %obj, null
  br i1 %isnull, label %delete.end, label %delete.notnull

delete.notnull:                                   ; preds = %entry
  tail call void @_ZN6icu_7515AlphabeticIndex6RecordD1Ev(ptr noundef nonnull align 8 dereferenceable(80) %obj) #16
  tail call void @_ZN6icu_757UMemorydlEPv(ptr noundef nonnull %obj) #16
  br label %delete.end

delete.end:                                       ; preds = %delete.notnull, %entry
  ret void
}